target datalayout = "e-m:e-p270:32:32-p271:32:32-p272:64:64-i64:64-i128:128-f80:128-n8:16:32:64-S128"
target triple = "x86_64-pc-linux-gnu"

%struct.timeval = type { i64, i64 }
%struct.pollfd = type { i32, i16, i16 }

; Function Attrs: nounwind uwtable
define dso_local i32 @Curl_wait_ms(i64 noundef %0) #0 {
  %2 = alloca i32, align 4
  %3 = alloca i64, align 8
  %4 = alloca i32, align 4
  %5 = alloca i32, align 4
  %6 = alloca %struct.timeval, align 8
  store i64 %0, ptr %3, align 8, !tbaa !4
  call void @llvm.lifetime.start.p0(i64 4, ptr %4) #6
  store i32 0, ptr %4, align 4, !tbaa !8
  %7 = load i64, ptr %3, align 8, !tbaa !4
  %8 = icmp ne i64 %7, 0
  br i1 %8, label %10, label %9

9:                                                ; preds = %1
  store i32 0, ptr %2, align 4
  store i32 1, ptr %5, align 4
  br label %33

10:                                               ; preds = %1
  %11 = load i64, ptr %3, align 8, !tbaa !4
  %12 = icmp slt i64 %11, 0
  br i1 %12, label %13, label %15

13:                                               ; preds = %10
  %14 = call ptr @__errno_location() #7
  store i32 22, ptr %14, align 4, !tbaa !8
  store i32 -1, ptr %2, align 4
  store i32 1, ptr %5, align 4
  br label %33

15:                                               ; preds = %10
  call void @llvm.lifetime.start.p0(i64 16, ptr %6) #6
  %16 = load i64, ptr %3, align 8, !tbaa !4
  %17 = call ptr @curlx_mstotv(ptr noundef %6, i64 noundef %16)
  %18 = call i32 @select(i32 noundef 0, ptr noundef null, ptr noundef null, ptr noundef null, ptr noundef %17)
  store i32 %18, ptr %4, align 4, !tbaa !8
  call void @llvm.lifetime.end.p0(i64 16, ptr %6) #6
  %19 = load i32, ptr %4, align 4, !tbaa !8
  %20 = icmp ne i32 %19, 0
  br i1 %20, label %21, label %31

21:                                               ; preds = %15
  %22 = load i32, ptr %4, align 4, !tbaa !8
  %23 = icmp eq i32 %22, -1
  br i1 %23, label %24, label %29

24:                                               ; preds = %21
  %25 = call ptr @__errno_location() #7
  %26 = load i32, ptr %25, align 4, !tbaa !8
  %27 = icmp eq i32 %26, 4
  br i1 %27, label %28, label %29

28:                                               ; preds = %24
  store i32 0, ptr %4, align 4, !tbaa !8
  br label %30

29:                                               ; preds = %24, %21
  store i32 -1, ptr %4, align 4, !tbaa !8
  br label %30

30:                                               ; preds = %29, %28
  br label %31

31:                                               ; preds = %30, %15
  %32 = load i32, ptr %4, align 4, !tbaa !8
  store i32 %32, ptr %2, align 4
  store i32 1, ptr %5, align 4
  br label %33

33:                                               ; preds = %31, %13, %9
  call void @llvm.lifetime.end.p0(i64 4, ptr %4) #6
  %34 = load i32, ptr %2, align 4
  ret i32 %34
}

; Function Attrs: nounwind uwtable
define dso_local i32 @Curl_poll(ptr noundef %0, i32 noundef %1, i64 noundef %2) #0 {
  %4 = alloca i32, align 4
  %5 = alloca ptr, align 8
  %6 = alloca i32, align 4
  %7 = alloca i64, align 8
  %8 = alloca i32, align 4
  %9 = alloca i8, align 1
  %10 = alloca i32, align 4
  %11 = alloca i32, align 4
  %12 = alloca i32, align 4
  store ptr %0, ptr %5, align 8, !tbaa !15
  store i32 %1, ptr %6, align 4, !tbaa !8
  store i64 %2, ptr %7, align 8, !tbaa !4
  call void @llvm.lifetime.start.p0(i64 4, ptr %8) #6
  call void @llvm.lifetime.start.p0(i64 1, ptr %9) #6
  store i8 1, ptr %9, align 1, !tbaa !18
  call void @llvm.lifetime.start.p0(i64 4, ptr %10) #6
  call void @llvm.lifetime.start.p0(i64 4, ptr %11) #6
  %13 = load ptr, ptr %5, align 8, !tbaa !15
  %14 = icmp ne ptr %13, null
  br i1 %14, label %15, label %34

15:                                               ; preds = %3
  store i32 0, ptr %10, align 4, !tbaa !8
  br label %16

16:                                               ; preds = %30, %15
  %17 = load i32, ptr %10, align 4, !tbaa !8
  %18 = load i32, ptr %6, align 4, !tbaa !8
  %19 = icmp ult i32 %17, %18
  br i1 %19, label %20, label %33

20:                                               ; preds = %16
  %21 = load ptr, ptr %5, align 8, !tbaa !15
  %22 = load i32, ptr %10, align 4, !tbaa !8
  %23 = zext i32 %22 to i64
  %24 = getelementptr inbounds nuw %struct.pollfd, ptr %21, i64 %23
  %25 = getelementptr inbounds nuw %struct.pollfd, ptr %24, i32 0, i32 0
  %26 = load i32, ptr %25, align 4, !tbaa !10
  %27 = icmp ne i32 %26, -1
  br i1 %27, label %28, label %29

28:                                               ; preds = %20
  store i8 0, ptr %9, align 1, !tbaa !18
  br label %33

29:                                               ; preds = %20
  br label %30

30:                                               ; preds = %29
  %31 = load i32, ptr %10, align 4, !tbaa !8
  %32 = add i32 %31, 1
  store i32 %32, ptr %10, align 4, !tbaa !8
  br label %16, !llvm.loop !20

33:                                               ; preds = %28, %16
  br label %34

34:                                               ; preds = %33, %3
  %35 = load i8, ptr %9, align 1, !tbaa !18, !range !22, !noundef !23
  %36 = trunc i8 %35 to i1
  br i1 %36, label %37, label %40

37:                                               ; preds = %34
  %38 = load i64, ptr %7, align 8, !tbaa !4
  %39 = call i32 @Curl_wait_ms(i64 noundef %38)
  store i32 %39, ptr %4, align 4
  store i32 1, ptr %12, align 4
  br label %134

40:                                               ; preds = %34
  %41 = load i64, ptr %7, align 8, !tbaa !4
  %42 = icmp sgt i64 %41, 2147483647
  br i1 %42, label %43, label %44

43:                                               ; preds = %40
  store i64 2147483647, ptr %7, align 8, !tbaa !4
  br label %44

44:                                               ; preds = %43, %40
  %45 = load i64, ptr %7, align 8, !tbaa !4
  %46 = icmp sgt i64 %45, 0
  br i1 %46, label %47, label %50

47:                                               ; preds = %44
  %48 = load i64, ptr %7, align 8, !tbaa !4
  %49 = trunc i64 %48 to i32
  store i32 %49, ptr %8, align 4, !tbaa !8
  br label %56

50:                                               ; preds = %44
  %51 = load i64, ptr %7, align 8, !tbaa !4
  %52 = icmp slt i64 %51, 0
  br i1 %52, label %53, label %54

53:                                               ; preds = %50
  store i32 -1, ptr %8, align 4, !tbaa !8
  br label %55

54:                                               ; preds = %50
  store i32 0, ptr %8, align 4, !tbaa !8
  br label %55

55:                                               ; preds = %54, %53
  br label %56

56:                                               ; preds = %55, %47
  %57 = load ptr, ptr %5, align 8, !tbaa !15
  %58 = load i32, ptr %6, align 4, !tbaa !8
  %59 = zext i32 %58 to i64
  %60 = load i32, ptr %8, align 4, !tbaa !8
  %61 = call i32 @poll(ptr noundef %57, i64 noundef %59, i32 noundef %60)
  store i32 %61, ptr %11, align 4, !tbaa !8
  %62 = load i32, ptr %11, align 4, !tbaa !8
  %63 = icmp sle i32 %62, 0
  br i1 %63, label %64, label %74

64:                                               ; preds = %56
  %65 = load i32, ptr %11, align 4, !tbaa !8
  %66 = icmp eq i32 %65, -1
  br i1 %66, label %67, label %72

67:                                               ; preds = %64
  %68 = call ptr @__errno_location() #7
  %69 = load i32, ptr %68, align 4, !tbaa !8
  %70 = icmp eq i32 %69, 4
  br i1 %70, label %71, label %72

71:                                               ; preds = %67
  store i32 0, ptr %11, align 4, !tbaa !8
  br label %72

72:                                               ; preds = %71, %67, %64
  %73 = load i32, ptr %11, align 4, !tbaa !8
  store i32 %73, ptr %4, align 4
  store i32 1, ptr %12, align 4
  br label %134

74:                                               ; preds = %56
  store i32 0, ptr %10, align 4, !tbaa !8
  br label %75

75:                                               ; preds = %129, %74
  %76 = load i32, ptr %10, align 4, !tbaa !8
  %77 = load i32, ptr %6, align 4, !tbaa !8
  %78 = icmp ult i32 %76, %77
  br i1 %78, label %79, label %132

79:                                               ; preds = %75
  %80 = load ptr, ptr %5, align 8, !tbaa !15
  %81 = load i32, ptr %10, align 4, !tbaa !8
  %82 = zext i32 %81 to i64
  %83 = getelementptr inbounds nuw %struct.pollfd, ptr %80, i64 %82
  %84 = getelementptr inbounds nuw %struct.pollfd, ptr %83, i32 0, i32 0
  %85 = load i32, ptr %84, align 4, !tbaa !10
  %86 = icmp eq i32 %85, -1
  br i1 %86, label %87, label %88

87:                                               ; preds = %79
  br label %129

88:                                               ; preds = %79
  %89 = load ptr, ptr %5, align 8, !tbaa !15
  %90 = load i32, ptr %10, align 4, !tbaa !8
  %91 = zext i32 %90 to i64
  %92 = getelementptr inbounds nuw %struct.pollfd, ptr %89, i64 %91
  %93 = getelementptr inbounds nuw %struct.pollfd, ptr %92, i32 0, i32 2
  %94 = load i16, ptr %93, align 2, !tbaa !14
  %95 = sext i16 %94 to i32
  %96 = and i32 %95, 16
  %97 = icmp ne i32 %96, 0
  br i1 %97, label %98, label %108

98:                                               ; preds = %88
  %99 = load ptr, ptr %5, align 8, !tbaa !15
  %100 = load i32, ptr %10, align 4, !tbaa !8
  %101 = zext i32 %100 to i64
  %102 = getelementptr inbounds nuw %struct.pollfd, ptr %99, i64 %101
  %103 = getelementptr inbounds nuw %struct.pollfd, ptr %102, i32 0, i32 2
  %104 = load i16, ptr %103, align 2, !tbaa !14
  %105 = sext i16 %104 to i32
  %106 = or i32 %105, 1
  %107 = trunc i32 %106 to i16
  store i16 %107, ptr %103, align 2, !tbaa !14
  br label %108

108:                                              ; preds = %98, %88
  %109 = load ptr, ptr %5, align 8, !tbaa !15
  %110 = load i32, ptr %10, align 4, !tbaa !8
  %111 = zext i32 %110 to i64
  %112 = getelementptr inbounds nuw %struct.pollfd, ptr %109, i64 %111
  %113 = getelementptr inbounds nuw %struct.pollfd, ptr %112, i32 0, i32 2
  %114 = load i16, ptr %113, align 2, !tbaa !14
  %115 = sext i16 %114 to i32
  %116 = and i32 %115, 8
  %117 = icmp ne i32 %116, 0
  br i1 %117, label %118, label %128

118:                                              ; preds = %108
  %119 = load ptr, ptr %5, align 8, !tbaa !15
  %120 = load i32, ptr %10, align 4, !tbaa !8
  %121 = zext i32 %120 to i64
  %122 = getelementptr inbounds nuw %struct.pollfd, ptr %119, i64 %121
  %123 = getelementptr inbounds nuw %struct.pollfd, ptr %122, i32 0, i32 2
  %124 = load i16, ptr %123, align 2, !tbaa !14
  %125 = sext i16 %124 to i32
  %126 = or i32 %125, 5
  %127 = trunc i32 %126 to i16
  store i16 %127, ptr %123, align 2, !tbaa !14
  br label %128

128:                                              ; preds = %118, %108
  br label %129

129:                                              ; preds = %128, %87
  %130 = load i32, ptr %10, align 4, !tbaa !8
  %131 = add i32 %130, 1
  store i32 %131, ptr %10, align 4, !tbaa !8
  br label %75, !llvm.loop !24

132:                                              ; preds = %75
  %133 = load i32, ptr %11, align 4, !tbaa !8
  store i32 %133, ptr %4, align 4
  store i32 1, ptr %12, align 4
  br label %134

134:                                              ; preds = %132, %72, %37
  call void @llvm.lifetime.end.p0(i64 4, ptr %11) #6
  call void @llvm.lifetime.end.p0(i64 4, ptr %10) #6
  call void @llvm.lifetime.end.p0(i64 1, ptr %9) #6
  call void @llvm.lifetime.end.p0(i64 4, ptr %8) #6
  %135 = load i32, ptr %4, align 4
  ret i32 %135
}